; Function Attrs: nounwind uwtable
define ptr @l_liftM___at_Lake_instMonadLiftTExceptTOfMonadOfMonadExceptOf__lake___spec__1___rarg(ptr noundef %0, ptr noundef %1, ptr readnone captures(none) %2, ptr noundef %3) #0 {
  %5 = ptrtoint ptr %3 to i64
  %6 = and i64 %5, 1
  %.not.i47 = icmp eq i64 %6, 0
  br i1 %.not.i47, label %10, label %7

7:                                                ; preds = %4
  %8 = lshr i64 %5, 1
  %9 = trunc i64 %8 to i32
  br label %lean_obj_tag.exit

10:                                               ; preds = %4
  %11 = getelementptr i8, ptr %3, i64 4
  %.val.i = load i32, ptr %11, align 4
  %12 = lshr i32 %.val.i, 24
  br label %lean_obj_tag.exit

lean_obj_tag.exit:                                ; preds = %7, %10
  %.0.i = phi i32 [ %9, %7 ], [ %12, %10 ]
  %13 = icmp eq i32 %.0.i, 0
  br i1 %13, label %14, label %61

14:                                               ; preds = %lean_obj_tag.exit
  %15 = ptrtoint ptr %0 to i64
  %16 = and i64 %15, 1
  %.not67 = icmp eq i64 %16, 0
  br i1 %.not67, label %17, label %lean_dec.exit34

17:                                               ; preds = %14
  %18 = load i32, ptr %0, align 4, !tbaa !8
  %19 = icmp sgt i32 %18, 1
  br i1 %19, label %20, label %22, !prof !11

20:                                               ; preds = %17
  %21 = add nsw i32 %18, -1
  store i32 %21, ptr %0, align 4, !tbaa !8
  br label %lean_dec.exit34

22:                                               ; preds = %17
  %.not.i = icmp eq i32 %18, 0
  br i1 %.not.i, label %lean_dec.exit34, label %23

23:                                               ; preds = %22
  tail call void @lean_dec_ref_cold(ptr noundef nonnull %0) #3
  br label %lean_dec.exit34

lean_dec.exit34:                                  ; preds = %23, %22, %20, %14
  %24 = getelementptr inbounds nuw i8, ptr %3, i64 8
  %25 = load ptr, ptr %24, align 8, !tbaa !4
  %26 = ptrtoint ptr %25 to i64
  %27 = and i64 %26, 1
  %.not68 = icmp eq i64 %27, 0
  br i1 %.not68, label %28, label %lean_inc.exit28

28:                                               ; preds = %lean_dec.exit34
  %.val.i48 = load i32, ptr %25, align 4, !tbaa !8
  %29 = icmp sgt i32 %.val.i48, 0
  br i1 %29, label %30, label %32, !prof !11

30:                                               ; preds = %28
  %31 = add nuw i32 %.val.i48, 1
  store i32 %31, ptr %25, align 4, !tbaa !8
  br label %lean_inc.exit28

32:                                               ; preds = %28
  %.not.i49 = icmp eq i32 %.val.i48, 0
  br i1 %.not.i49, label %lean_inc.exit28, label %33

33:                                               ; preds = %32
  tail call void @lean_inc_ref_cold(ptr noundef nonnull %25) #3
  br label %lean_inc.exit28

lean_inc.exit28:                                  ; preds = %33, %32, %30, %lean_dec.exit34
  br i1 %.not.i47, label %34, label %lean_dec.exit33

34:                                               ; preds = %lean_inc.exit28
  %35 = load i32, ptr %3, align 4, !tbaa !8
  %36 = icmp sgt i32 %35, 1
  br i1 %36, label %37, label %39, !prof !11

37:                                               ; preds = %34
  %38 = add nsw i32 %35, -1
  store i32 %38, ptr %3, align 4, !tbaa !8
  br label %lean_dec.exit33

39:                                               ; preds = %34
  %.not.i35 = icmp eq i32 %35, 0
  br i1 %.not.i35, label %lean_dec.exit33, label %40

40:                                               ; preds = %39
  tail call void @lean_dec_ref_cold(ptr noundef nonnull %3) #3
  br label %lean_dec.exit33

lean_dec.exit33:                                  ; preds = %40, %39, %37, %lean_inc.exit28
  %41 = getelementptr inbounds nuw i8, ptr %1, i64 8
  %42 = load ptr, ptr %41, align 8, !tbaa !4
  %43 = ptrtoint ptr %42 to i64
  %44 = and i64 %43, 1
  %.not70 = icmp eq i64 %44, 0
  br i1 %.not70, label %45, label %lean_inc.exit27

45:                                               ; preds = %lean_dec.exit33
  %.val.i50 = load i32, ptr %42, align 4, !tbaa !8
  %46 = icmp sgt i32 %.val.i50, 0
  br i1 %46, label %47, label %49, !prof !11

47:                                               ; preds = %45
  %48 = add nuw i32 %.val.i50, 1
  store i32 %48, ptr %42, align 4, !tbaa !8
  br label %lean_inc.exit27

49:                                               ; preds = %45
  %.not.i51 = icmp eq i32 %.val.i50, 0
  br i1 %.not.i51, label %lean_inc.exit27, label %50

50:                                               ; preds = %49
  tail call void @lean_inc_ref_cold(ptr noundef nonnull %42) #3
  br label %lean_inc.exit27

lean_inc.exit27:                                  ; preds = %50, %49, %47, %lean_dec.exit33
  %51 = ptrtoint ptr %1 to i64
  %52 = and i64 %51, 1
  %.not71 = icmp eq i64 %52, 0
  br i1 %.not71, label %53, label %lean_dec.exit32

53:                                               ; preds = %lean_inc.exit27
  %54 = load i32, ptr %1, align 4, !tbaa !8
  %55 = icmp sgt i32 %54, 1
  br i1 %55, label %56, label %58, !prof !11

56:                                               ; preds = %53
  %57 = add nsw i32 %54, -1
  store i32 %57, ptr %1, align 4, !tbaa !8
  br label %lean_dec.exit32

58:                                               ; preds = %53
  %.not.i37 = icmp eq i32 %54, 0
  br i1 %.not.i37, label %lean_dec.exit32, label %59

59:                                               ; preds = %58
  tail call void @lean_dec_ref_cold(ptr noundef nonnull %1) #3
  br label %lean_dec.exit32

lean_dec.exit32:                                  ; preds = %59, %58, %56, %lean_inc.exit27
  %60 = tail call ptr @lean_apply_2(ptr noundef %42, ptr noundef nonnull inttoptr (i64 1 to ptr), ptr noundef %25) #3
  br label %125

61:                                               ; preds = %lean_obj_tag.exit
  %62 = ptrtoint ptr %1 to i64
  %63 = and i64 %62, 1
  %.not = icmp eq i64 %63, 0
  br i1 %.not, label %64, label %lean_dec.exit31

64:                                               ; preds = %61
  %65 = load i32, ptr %1, align 4, !tbaa !8
  %66 = icmp sgt i32 %65, 1
  br i1 %66, label %67, label %69, !prof !11

67:                                               ; preds = %64
  %68 = add nsw i32 %65, -1
  store i32 %68, ptr %1, align 4, !tbaa !8
  br label %lean_dec.exit31

69:                                               ; preds = %64
  %.not.i39 = icmp eq i32 %65, 0
  br i1 %.not.i39, label %lean_dec.exit31, label %70

70:                                               ; preds = %69
  tail call void @lean_dec_ref_cold(ptr noundef nonnull %1) #3
  br label %lean_dec.exit31

lean_dec.exit31:                                  ; preds = %70, %69, %67, %61
  %71 = getelementptr inbounds nuw i8, ptr %3, i64 8
  %72 = load ptr, ptr %71, align 8, !tbaa !4
  %73 = ptrtoint ptr %72 to i64
  %74 = and i64 %73, 1
  %.not62 = icmp eq i64 %74, 0
  br i1 %.not62, label %75, label %lean_inc.exit26

75:                                               ; preds = %lean_dec.exit31
  %.val.i53 = load i32, ptr %72, align 4, !tbaa !8
  %76 = icmp sgt i32 %.val.i53, 0
  br i1 %76, label %77, label %79, !prof !11

77:                                               ; preds = %75
  %78 = add nuw i32 %.val.i53, 1
  store i32 %78, ptr %72, align 4, !tbaa !8
  br label %lean_inc.exit26

79:                                               ; preds = %75
  %.not.i54 = icmp eq i32 %.val.i53, 0
  br i1 %.not.i54, label %lean_inc.exit26, label %80

80:                                               ; preds = %79
  tail call void @lean_inc_ref_cold(ptr noundef nonnull %72) #3
  br label %lean_inc.exit26

lean_inc.exit26:                                  ; preds = %80, %79, %77, %lean_dec.exit31
  br i1 %.not.i47, label %81, label %lean_dec.exit30

81:                                               ; preds = %lean_inc.exit26
  %82 = load i32, ptr %3, align 4, !tbaa !8
  %83 = icmp sgt i32 %82, 1
  br i1 %83, label %84, label %86, !prof !11

84:                                               ; preds = %81
  %85 = add nsw i32 %82, -1
  store i32 %85, ptr %3, align 4, !tbaa !8
  br label %lean_dec.exit30

86:                                               ; preds = %81
  %.not.i41 = icmp eq i32 %82, 0
  br i1 %.not.i41, label %lean_dec.exit30, label %87

87:                                               ; preds = %86
  tail call void @lean_dec_ref_cold(ptr noundef nonnull %3) #3
  br label %lean_dec.exit30

lean_dec.exit30:                                  ; preds = %87, %86, %84, %lean_inc.exit26
  %88 = getelementptr inbounds nuw i8, ptr %0, i64 8
  %89 = load ptr, ptr %88, align 8, !tbaa !4
  %90 = ptrtoint ptr %89 to i64
  %91 = and i64 %90, 1
  %.not64 = icmp eq i64 %91, 0
  br i1 %.not64, label %92, label %lean_inc.exit25

92:                                               ; preds = %lean_dec.exit30
  %.val.i56 = load i32, ptr %89, align 4, !tbaa !8
  %93 = icmp sgt i32 %.val.i56, 0
  br i1 %93, label %94, label %96, !prof !11

94:                                               ; preds = %92
  %95 = add nuw i32 %.val.i56, 1
  store i32 %95, ptr %89, align 4, !tbaa !8
  br label %lean_inc.exit25

96:                                               ; preds = %92
  %.not.i57 = icmp eq i32 %.val.i56, 0
  br i1 %.not.i57, label %lean_inc.exit25, label %97

97:                                               ; preds = %96
  tail call void @lean_inc_ref_cold(ptr noundef nonnull %89) #3
  br label %lean_inc.exit25

lean_inc.exit25:                                  ; preds = %97, %96, %94, %lean_dec.exit30
  %98 = ptrtoint ptr %0 to i64
  %99 = and i64 %98, 1
  %.not65 = icmp eq i64 %99, 0
  br i1 %.not65, label %100, label %lean_dec.exit29

100:                                              ; preds = %lean_inc.exit25
  %101 = load i32, ptr %0, align 4, !tbaa !8
  %102 = icmp sgt i32 %101, 1
  br i1 %102, label %103, label %105, !prof !11

103:                                              ; preds = %100
  %104 = add nsw i32 %101, -1
  store i32 %104, ptr %0, align 4, !tbaa !8
  br label %lean_dec.exit29

105:                                              ; preds = %100
  %.not.i43 = icmp eq i32 %101, 0
  br i1 %.not.i43, label %lean_dec.exit29, label %106

106:                                              ; preds = %105
  tail call void @lean_dec_ref_cold(ptr noundef nonnull %0) #3
  br label %lean_dec.exit29

lean_dec.exit29:                                  ; preds = %106, %105, %103, %lean_inc.exit25
  %107 = getelementptr inbounds nuw i8, ptr %89, i64 16
  %108 = load ptr, ptr %107, align 8, !tbaa !4
  %109 = ptrtoint ptr %108 to i64
  %110 = and i64 %109, 1
  %.not66 = icmp eq i64 %110, 0
  br i1 %.not66, label %111, label %lean_inc.exit

111:                                              ; preds = %lean_dec.exit29
  %.val.i59 = load i32, ptr %108, align 4, !tbaa !8
  %112 = icmp sgt i32 %.val.i59, 0
  br i1 %112, label %113, label %115, !prof !11

113:                                              ; preds = %111
  %114 = add nuw i32 %.val.i59, 1
  store i32 %114, ptr %108, align 4, !tbaa !8
  br label %lean_inc.exit

115:                                              ; preds = %111
  %.not.i60 = icmp eq i32 %.val.i59, 0
  br i1 %.not.i60, label %lean_inc.exit, label %116

116:                                              ; preds = %115
  tail call void @lean_inc_ref_cold(ptr noundef nonnull %108) #3
  br label %lean_inc.exit

lean_inc.exit:                                    ; preds = %116, %115, %113, %lean_dec.exit29
  br i1 %.not64, label %117, label %lean_dec.exit

117:                                              ; preds = %lean_inc.exit
  %118 = load i32, ptr %89, align 4, !tbaa !8
  %119 = icmp sgt i32 %118, 1
  br i1 %119, label %120, label %122, !prof !11

120:                                              ; preds = %117
  %121 = add nsw i32 %118, -1
  store i32 %121, ptr %89, align 4, !tbaa !8
  br label %lean_dec.exit

122:                                              ; preds = %117
  %.not.i45 = icmp eq i32 %118, 0
  br i1 %.not.i45, label %lean_dec.exit, label %123

123:                                              ; preds = %122
  tail call void @lean_dec_ref_cold(ptr noundef nonnull %89) #3
  br label %lean_dec.exit

lean_dec.exit:                                    ; preds = %123, %122, %120, %lean_inc.exit
  %124 = tail call ptr @lean_apply_2(ptr noundef %108, ptr noundef nonnull inttoptr (i64 1 to ptr), ptr noundef %72) #3
  br label %125

125:                                              ; preds = %lean_dec.exit, %lean_dec.exit32
  %.0 = phi ptr [ %60, %lean_dec.exit32 ], [ %124, %lean_dec.exit ]
  ret ptr %.0
}